target datalayout = "e-m:e-p270:32:32-p271:32:32-p272:64:64-i64:64-i128:128-f80:128-n8:16:32:64-S128"
target triple = "x86_64-pc-linux-gnu"

%struct.AVFilterContext = type { ptr, ptr, ptr, ptr, ptr, i32, ptr, ptr, i32, ptr, ptr, i32, i32, ptr, ptr, ptr, ptr, i32, ptr, i32, i32 }
%struct.FFFilterContext = type { %struct.AVFilterContext, ptr, i32, i32, ptr, ptr, ptr }
%struct.FilterLinkInternal = type { %struct.FilterLink, ptr, %struct.FFFrameQueue, i32, i32, i64, i32, i32, i32, i32 }
%struct.FilterLink = type { %struct.AVFilterLink, ptr, i64, i64, i32, i32, i64, i64, i64, i64, %struct.AVRational, ptr }
%struct.AVFilterLink = type { ptr, ptr, ptr, ptr, i32, i32, i32, i32, %struct.AVRational, i32, i32, i32, %struct.AVChannelLayout, %struct.AVRational, ptr, i32, %struct.AVFilterFormatsConfig, %struct.AVFilterFormatsConfig }
%struct.AVChannelLayout = type { i32, i32, %union.anon.0, ptr }
%union.anon.0 = type { i64 }
%struct.AVFilterFormatsConfig = type { ptr, ptr, ptr, ptr, ptr }
%struct.AVRational = type { i32, i32 }
%struct.FFFrameQueue = type { ptr, i64, i64, i64, %struct.FFFrameBucket, i64, i64, i64, i64, i32 }
%struct.FFFrameBucket = type { ptr }

@.str = private unnamed_addr constant [30 x i8] c"Assertion %s failed at %s:%d\0A\00", align 1
@.str.2 = private unnamed_addr constant [23 x i8] c"libavfilter/avfilter.c\00", align 1
@.str.41 = private unnamed_addr constant [22 x i8] c"!li->frame_wanted_out\00", align 1
@.str.42 = private unnamed_addr constant [16 x i8] c"!li->status_out\00", align 1

; Function Attrs: inlinehint nounwind uwtable
define internal ptr @fffilterctx(ptr noundef %0) #4 {
  %2 = alloca ptr, align 8
  store ptr %0, ptr %2, align 8, !tbaa !4
  %3 = load ptr, ptr %2, align 8, !tbaa !4
  ret ptr %3
}

; Function Attrs: nounwind uwtable
define void @ff_filter_set_ready(ptr noundef %0, i32 noundef %1) #0 {
  %3 = alloca ptr, align 8
  %4 = alloca i32, align 4
  %5 = alloca ptr, align 8
  store ptr %0, ptr %3, align 8, !tbaa !4
  store i32 %1, ptr %4, align 4, !tbaa !19
  call void @llvm.lifetime.start.p0(i64 8, ptr %5) #11
  %6 = load ptr, ptr %3, align 8, !tbaa !4
  %7 = call ptr @fffilterctx(ptr noundef %6)
  store ptr %7, ptr %5, align 8, !tbaa !74
  %8 = load ptr, ptr %5, align 8, !tbaa !74
  %9 = getelementptr inbounds nuw %struct.FFFilterContext, ptr %8, i32 0, i32 3
  %10 = load i32, ptr %9, align 4, !tbaa !76
  %11 = load i32, ptr %4, align 4, !tbaa !19
  %12 = icmp ugt i32 %10, %11
  br i1 %12, label %13, label %17

13:                                               ; preds = %2
  %14 = load ptr, ptr %5, align 8, !tbaa !74
  %15 = getelementptr inbounds nuw %struct.FFFilterContext, ptr %14, i32 0, i32 3
  %16 = load i32, ptr %15, align 4, !tbaa !76
  br label %19

17:                                               ; preds = %2
  %18 = load i32, ptr %4, align 4, !tbaa !19
  br label %19

19:                                               ; preds = %17, %13
  %20 = phi i32 [ %16, %13 ], [ %18, %17 ]
  %21 = load ptr, ptr %5, align 8, !tbaa !74
  %22 = getelementptr inbounds nuw %struct.FFFilterContext, ptr %21, i32 0, i32 3
  store i32 %20, ptr %22, align 4, !tbaa !76
  call void @llvm.lifetime.end.p0(i64 8, ptr %5) #11
  ret void
}

; Function Attrs: nounwind uwtable
define internal void @filter_unblock(ptr noundef %0) #0 {
  %2 = alloca ptr, align 8
  %3 = alloca i32, align 4
  %4 = alloca ptr, align 8
  store ptr %0, ptr %2, align 8, !tbaa !4
  call void @llvm.lifetime.start.p0(i64 4, ptr %3) #11
  store i32 0, ptr %3, align 4, !tbaa !19
  br label %5

5:                                                ; preds = %22, %1
  %6 = load i32, ptr %3, align 4, !tbaa !19
  %7 = load ptr, ptr %2, align 8, !tbaa !4
  %8 = getelementptr inbounds nuw %struct.AVFilterContext, ptr %7, i32 0, i32 8
  %9 = load i32, ptr %8, align 8, !tbaa !36
  %10 = icmp ult i32 %6, %9
  br i1 %10, label %11, label %25

11:                                               ; preds = %5
  call void @llvm.lifetime.start.p0(i64 8, ptr %4) #11
  %12 = load ptr, ptr %2, align 8, !tbaa !4
  %13 = getelementptr inbounds nuw %struct.AVFilterContext, ptr %12, i32 0, i32 7
  %14 = load ptr, ptr %13, align 8, !tbaa !38
  %15 = load i32, ptr %3, align 4, !tbaa !19
  %16 = zext i32 %15 to i64
  %17 = getelementptr inbounds nuw ptr, ptr %14, i64 %16
  %18 = load ptr, ptr %17, align 8, !tbaa !26
  %19 = call ptr @ff_link_internal(ptr noundef %18)
  store ptr %19, ptr %4, align 8, !tbaa !47
  %20 = load ptr, ptr %4, align 8, !tbaa !47
  %21 = getelementptr inbounds nuw %struct.FilterLinkInternal, ptr %20, i32 0, i32 3
  store i32 0, ptr %21, align 8, !tbaa !81
  call void @llvm.lifetime.end.p0(i64 8, ptr %4) #11
  br label %22

22:                                               ; preds = %11
  %23 = load i32, ptr %3, align 4, !tbaa !19
  %24 = add i32 %23, 1
  store i32 %24, ptr %3, align 4, !tbaa !19
  br label %5, !llvm.loop !82

25:                                               ; preds = %5
  call void @llvm.lifetime.end.p0(i64 4, ptr %3) #11
  ret void
}

; Function Attrs: nounwind uwtable
define internal void @update_link_current_pts(ptr noundef %0, i64 noundef %1) #0 {
  %3 = alloca ptr, align 8
  %4 = alloca i64, align 8
  %5 = alloca ptr, align 8
  %6 = alloca i32, align 4
  %7 = alloca %struct.AVRational, align 4
  store ptr %0, ptr %3, align 8, !tbaa !47
  store i64 %1, ptr %4, align 8, !tbaa !77
  call void @llvm.lifetime.start.p0(i64 8, ptr %5) #11
  %8 = load ptr, ptr %3, align 8, !tbaa !47
  %9 = getelementptr inbounds nuw %struct.FilterLinkInternal, ptr %8, i32 0, i32 0
  %10 = getelementptr inbounds nuw %struct.FilterLink, ptr %9, i32 0, i32 0
  store ptr %10, ptr %5, align 8, !tbaa !26
  %11 = load i64, ptr %4, align 8, !tbaa !77
  %12 = icmp eq i64 %11, -9223372036854775808
  br i1 %12, label %13, label %14

13:                                               ; preds = %2
  store i32 1, ptr %6, align 4
  br label %47

14:                                               ; preds = %2
  %15 = load i64, ptr %4, align 8, !tbaa !77
  %16 = load ptr, ptr %3, align 8, !tbaa !47
  %17 = getelementptr inbounds nuw %struct.FilterLinkInternal, ptr %16, i32 0, i32 0
  %18 = getelementptr inbounds nuw %struct.FilterLink, ptr %17, i32 0, i32 2
  store i64 %15, ptr %18, align 8, !tbaa !90
  %19 = load i64, ptr %4, align 8, !tbaa !77
  %20 = load ptr, ptr %5, align 8, !tbaa !26
  %21 = getelementptr inbounds nuw %struct.AVFilterLink, ptr %20, i32 0, i32 13
  %22 = getelementptr inbounds nuw %struct.AVRational, ptr %7, i32 0, i32 0
  store i32 1, ptr %22, align 4, !tbaa !101
  %23 = getelementptr inbounds nuw %struct.AVRational, ptr %7, i32 0, i32 1
  store i32 1000000, ptr %23, align 4, !tbaa !102
  %24 = load i64, ptr %21, align 8
  %25 = load i64, ptr %7, align 4
  %26 = call i64 @av_rescale_q(i64 noundef %19, i64 %24, i64 %25) #14
  %27 = load ptr, ptr %3, align 8, !tbaa !47
  %28 = getelementptr inbounds nuw %struct.FilterLinkInternal, ptr %27, i32 0, i32 0
  %29 = getelementptr inbounds nuw %struct.FilterLink, ptr %28, i32 0, i32 3
  store i64 %26, ptr %29, align 8, !tbaa !89
  %30 = load ptr, ptr %3, align 8, !tbaa !47
  %31 = getelementptr inbounds nuw %struct.FilterLinkInternal, ptr %30, i32 0, i32 0
  %32 = getelementptr inbounds nuw %struct.FilterLink, ptr %31, i32 0, i32 1
  %33 = load ptr, ptr %32, align 8, !tbaa !61
  %34 = icmp ne ptr %33, null
  br i1 %34, label %35, label %46

35:                                               ; preds = %14
  %36 = load ptr, ptr %3, align 8, !tbaa !47
  %37 = getelementptr inbounds nuw %struct.FilterLinkInternal, ptr %36, i32 0, i32 8
  %38 = load i32, ptr %37, align 8, !tbaa !202
  %39 = icmp sge i32 %38, 0
  br i1 %39, label %40, label %46

40:                                               ; preds = %35
  %41 = load ptr, ptr %3, align 8, !tbaa !47
  %42 = getelementptr inbounds nuw %struct.FilterLinkInternal, ptr %41, i32 0, i32 0
  %43 = getelementptr inbounds nuw %struct.FilterLink, ptr %42, i32 0, i32 1
  %44 = load ptr, ptr %43, align 8, !tbaa !61
  %45 = load ptr, ptr %3, align 8, !tbaa !47
  call void @ff_avfilter_graph_update_heap(ptr noundef %44, ptr noundef %45)
  br label %46

46:                                               ; preds = %40, %35, %14
  store i32 0, ptr %6, align 4
  br label %47

47:                                               ; preds = %46, %13
  call void @llvm.lifetime.end.p0(i64 8, ptr %5) #11
  %48 = load i32, ptr %6, align 4
  switch i32 %48, label %50 [
    i32 0, label %49
    i32 1, label %49
  ]

49:                                               ; preds = %47, %47
  ret void

50:                                               ; preds = %47
  unreachable
}

; Function Attrs: inlinehint nounwind uwtable
define internal i64 @ff_framequeue_queued_frames(ptr noundef %0) #4 {
  %2 = alloca ptr, align 8
  store ptr %0, ptr %2, align 8, !tbaa !121
  %3 = load ptr, ptr %2, align 8, !tbaa !121
  %4 = getelementptr inbounds nuw %struct.FFFrameQueue, ptr %3, i32 0, i32 3
  %5 = load i64, ptr %4, align 8, !tbaa !123
  ret i64 %5
}

; Function Attrs: nounwind uwtable
define internal void @link_set_out_status(ptr noundef %0, i32 noundef %1, i64 noundef %2) #0 {
  %4 = alloca ptr, align 8
  %5 = alloca i32, align 4
  %6 = alloca i64, align 8
  %7 = alloca ptr, align 8
  store ptr %0, ptr %4, align 8, !tbaa !26
  store i32 %1, ptr %5, align 4, !tbaa !19
  store i64 %2, ptr %6, align 8, !tbaa !77
  call void @llvm.lifetime.start.p0(i64 8, ptr %7) #11
  %8 = load ptr, ptr %4, align 8, !tbaa !26
  %9 = call ptr @ff_link_internal(ptr noundef %8)
  store ptr %9, ptr %7, align 8, !tbaa !47
  br label %10

10:                                               ; preds = %3
  %11 = load ptr, ptr %7, align 8, !tbaa !47
  %12 = getelementptr inbounds nuw %struct.FilterLinkInternal, ptr %11, i32 0, i32 7
  %13 = load i32, ptr %12, align 4, !tbaa !80
  %14 = icmp ne i32 %13, 0
  br i1 %14, label %15, label %16

15:                                               ; preds = %10
  call void (ptr, i32, ptr, ...) @av_log(ptr noundef null, i32 noundef 0, ptr noundef @.str, ptr noundef @.str.41, ptr noundef @.str.2, i32 noundef 273)
  call void @abort() #12
  unreachable

16:                                               ; preds = %10
  br label %17

17:                                               ; preds = %16
  br label %18

18:                                               ; preds = %17
  br label %19

19:                                               ; preds = %18
  %20 = load ptr, ptr %7, align 8, !tbaa !47
  %21 = getelementptr inbounds nuw %struct.FilterLinkInternal, ptr %20, i32 0, i32 6
  %22 = load i32, ptr %21, align 8, !tbaa !120
  %23 = icmp ne i32 %22, 0
  br i1 %23, label %24, label %25

24:                                               ; preds = %19
  call void (ptr, i32, ptr, ...) @av_log(ptr noundef null, i32 noundef 0, ptr noundef @.str, ptr noundef @.str.42, ptr noundef @.str.2, i32 noundef 274)
  call void @abort() #12
  unreachable

25:                                               ; preds = %19
  br label %26

26:                                               ; preds = %25
  br label %27

27:                                               ; preds = %26
  %28 = load i32, ptr %5, align 4, !tbaa !19
  %29 = load ptr, ptr %7, align 8, !tbaa !47
  %30 = getelementptr inbounds nuw %struct.FilterLinkInternal, ptr %29, i32 0, i32 6
  store i32 %28, ptr %30, align 8, !tbaa !120
  %31 = load i64, ptr %6, align 8, !tbaa !77
  %32 = icmp ne i64 %31, -9223372036854775808
  br i1 %32, label %33, label %36

33:                                               ; preds = %27
  %34 = load ptr, ptr %7, align 8, !tbaa !47
  %35 = load i64, ptr %6, align 8, !tbaa !77
  call void @update_link_current_pts(ptr noundef %34, i64 noundef %35)
  br label %36

36:                                               ; preds = %33, %27
  %37 = load ptr, ptr %4, align 8, !tbaa !26
  %38 = getelementptr inbounds nuw %struct.AVFilterLink, ptr %37, i32 0, i32 2
  %39 = load ptr, ptr %38, align 8, !tbaa !57
  call void @filter_unblock(ptr noundef %39)
  %40 = load ptr, ptr %4, align 8, !tbaa !26
  %41 = getelementptr inbounds nuw %struct.AVFilterLink, ptr %40, i32 0, i32 0
  %42 = load ptr, ptr %41, align 8, !tbaa !49
  call void @ff_filter_set_ready(ptr noundef %42, i32 noundef 200)
  call void @llvm.lifetime.end.p0(i64 8, ptr %7) #11
  ret void
}

; Function Attrs: inlinehint nounwind uwtable
define internal ptr @ff_link_internal(ptr noundef %0) #4 {
  %2 = alloca ptr, align 8
  store ptr %0, ptr %2, align 8, !tbaa !26
  %3 = load ptr, ptr %2, align 8, !tbaa !26
  ret ptr %3
}

; Function Attrs: nounwind uwtable
define void @ff_inlink_set_status(ptr noundef %0, i32 noundef %1) #0 {
  %3 = alloca ptr, align 8
  %4 = alloca i32, align 4
  %5 = alloca ptr, align 8
  %6 = alloca i32, align 4
  %7 = alloca ptr, align 8
  store ptr %0, ptr %3, align 8, !tbaa !26
  store i32 %1, ptr %4, align 4, !tbaa !19
  call void @llvm.lifetime.start.p0(i64 8, ptr %5) #11
  %8 = load ptr, ptr %3, align 8, !tbaa !26
  %9 = call ptr @ff_link_internal(ptr noundef %8)
  store ptr %9, ptr %5, align 8, !tbaa !47
  %10 = load ptr, ptr %5, align 8, !tbaa !47
  %11 = getelementptr inbounds nuw %struct.FilterLinkInternal, ptr %10, i32 0, i32 6
  %12 = load i32, ptr %11, align 8, !tbaa !120
  %13 = icmp ne i32 %12, 0
  br i1 %13, label %14, label %15

14:                                               ; preds = %2
  store i32 1, ptr %6, align 4
  br label %41

15:                                               ; preds = %2
  %16 = load ptr, ptr %5, align 8, !tbaa !47
  %17 = getelementptr inbounds nuw %struct.FilterLinkInternal, ptr %16, i32 0, i32 7
  store i32 0, ptr %17, align 4, !tbaa !80
  %18 = load ptr, ptr %5, align 8, !tbaa !47
  %19 = getelementptr inbounds nuw %struct.FilterLinkInternal, ptr %18, i32 0, i32 3
  store i32 0, ptr %19, align 8, !tbaa !81
  %20 = load ptr, ptr %3, align 8, !tbaa !26
  %21 = load i32, ptr %4, align 4, !tbaa !19
  call void @link_set_out_status(ptr noundef %20, i32 noundef %21, i64 noundef -9223372036854775808)
  br label %22

22:                                               ; preds = %27, %15
  %23 = load ptr, ptr %5, align 8, !tbaa !47
  %24 = getelementptr inbounds nuw %struct.FilterLinkInternal, ptr %23, i32 0, i32 2
  %25 = call i64 @ff_framequeue_queued_frames(ptr noundef %24)
  %26 = icmp ne i64 %25, 0
  br i1 %26, label %27, label %31

27:                                               ; preds = %22
  call void @llvm.lifetime.start.p0(i64 8, ptr %7) #11
  %28 = load ptr, ptr %5, align 8, !tbaa !47
  %29 = getelementptr inbounds nuw %struct.FilterLinkInternal, ptr %28, i32 0, i32 2
  %30 = call ptr @ff_framequeue_take(ptr noundef %29)
  store ptr %30, ptr %7, align 8, !tbaa !183
  call void @av_frame_free(ptr noundef %7)
  call void @llvm.lifetime.end.p0(i64 8, ptr %7) #11
  br label %22, !llvm.loop !220

31:                                               ; preds = %22
  %32 = load ptr, ptr %5, align 8, !tbaa !47
  %33 = getelementptr inbounds nuw %struct.FilterLinkInternal, ptr %32, i32 0, i32 4
  %34 = load i32, ptr %33, align 4, !tbaa !78
  %35 = icmp ne i32 %34, 0
  br i1 %35, label %40, label %36

36:                                               ; preds = %31
  %37 = load i32, ptr %4, align 4, !tbaa !19
  %38 = load ptr, ptr %5, align 8, !tbaa !47
  %39 = getelementptr inbounds nuw %struct.FilterLinkInternal, ptr %38, i32 0, i32 4
  store i32 %37, ptr %39, align 4, !tbaa !78
  br label %40

40:                                               ; preds = %36, %31
  store i32 0, ptr %6, align 4
  br label %41

41:                                               ; preds = %40, %14
  call void @llvm.lifetime.end.p0(i64 8, ptr %5) #11
  %42 = load i32, ptr %6, align 4
  switch i32 %42, label %44 [
    i32 0, label %43
    i32 1, label %43
  ]

43:                                               ; preds = %41, %41
  ret void

44:                                               ; preds = %41
  unreachable
}