; Function Attrs: nounwind uwtable
define void @ff_inlink_set_status(ptr noundef %0, i32 noundef %1) local_unnamed_addr #0 {
  %3 = alloca ptr, align 8
  %4 = getelementptr inbounds nuw i8, ptr %0, i64 384
  %5 = load i32, ptr %4, align 8, !tbaa !99
  %.not = icmp eq i32 %5, 0
  br i1 %.not, label %6, label %29

6:                                                ; preds = %2
  %7 = getelementptr inbounds nuw i8, ptr %0, i64 388
  store i32 0, ptr %7, align 4, !tbaa !65
  %8 = getelementptr inbounds nuw i8, ptr %0, i64 368
  store i32 0, ptr %8, align 8, !tbaa !66
  store i32 %1, ptr %4, align 8, !tbaa !99
  %9 = getelementptr inbounds nuw i8, ptr %0, i64 16
  %10 = load ptr, ptr %9, align 8, !tbaa !47
  %11 = getelementptr inbounds nuw i8, ptr %10, i64 64
  %12 = load i32, ptr %11, align 8, !tbaa !27
  %.not.i11.i = icmp eq i32 %12, 0
  br i1 %.not.i11.i, label %link_set_out_status.exit, label %.lr.ph.i.i

.lr.ph.i.i:                                       ; preds = %6
  %13 = getelementptr inbounds nuw i8, ptr %10, i64 56
  %14 = load ptr, ptr %13, align 8, !tbaa !29
  %wide.trip.count.i.i = zext i32 %12 to i64
  br label %15

15:                                               ; preds = %15, %.lr.ph.i.i
  %indvars.iv.i.i = phi i64 [ 0, %.lr.ph.i.i ], [ %indvars.iv.next.i.i, %15 ]
  %16 = getelementptr inbounds nuw ptr, ptr %14, i64 %indvars.iv.i.i
  %17 = load ptr, ptr %16, align 8, !tbaa !17
  %18 = getelementptr inbounds nuw i8, ptr %17, i64 368
  store i32 0, ptr %18, align 8, !tbaa !66
  %indvars.iv.next.i.i = add nuw nsw i64 %indvars.iv.i.i, 1
  %exitcond.not.i.i = icmp eq i64 %indvars.iv.next.i.i, %wide.trip.count.i.i
  br i1 %exitcond.not.i.i, label %link_set_out_status.exit, label %15, !llvm.loop !67

link_set_out_status.exit:                         ; preds = %15, %6
  %19 = load ptr, ptr %0, align 8, !tbaa !38
  %20 = getelementptr inbounds nuw i8, ptr %19, i64 164
  %21 = load i32, ptr %20, align 4, !tbaa !62
  %..i.i = tail call i32 @llvm.umax.i32(i32 %21, i32 200)
  store i32 %..i.i, ptr %20, align 4, !tbaa !62
  %22 = getelementptr i8, ptr %0, i64 312
  %.val12 = load i64, ptr %22, align 8, !tbaa !100
  %.not1013 = icmp eq i64 %.val12, 0
  br i1 %.not1013, label %._crit_edge, label %.lr.ph

.lr.ph:                                           ; preds = %link_set_out_status.exit
  %23 = getelementptr inbounds nuw i8, ptr %0, i64 288
  br label %24

24:                                               ; preds = %.lr.ph, %24
  call void @llvm.lifetime.start.p0(i64 8, ptr nonnull %3) #15
  %25 = call ptr @ff_framequeue_take(ptr noundef nonnull %23) #15
  store ptr %25, ptr %3, align 8, !tbaa !151
  call void @av_frame_free(ptr noundef nonnull %3) #15
  call void @llvm.lifetime.end.p0(i64 8, ptr nonnull %3) #15
  %.val = load i64, ptr %22, align 8, !tbaa !100
  %.not10 = icmp eq i64 %.val, 0
  br i1 %.not10, label %._crit_edge, label %24, !llvm.loop !163

._crit_edge:                                      ; preds = %24, %link_set_out_status.exit
  %26 = getelementptr inbounds nuw i8, ptr %0, i64 372
  %27 = load i32, ptr %26, align 4, !tbaa !63
  %.not11 = icmp eq i32 %27, 0
  br i1 %.not11, label %28, label %29

28:                                               ; preds = %._crit_edge
  store i32 %1, ptr %26, align 4, !tbaa !63
  br label %29

29:                                               ; preds = %._crit_edge, %28, %2
  ret void
}